; Listing generated by Microsoft (R) Optimizing Compiler Version 18.00.21005.1 

	TITLE	E:\netmf-interpreter3\DeviceCode\Targets\OS\Toppers\asp\tools\WINDOWS\cfg1_out.c
	.686P
	.XMM
	include listing.inc
	.model	flat

INCLUDELIB MSVCRTD
INCLUDELIB OLDNAMES

PUBLIC	_TOPPERS_cfg_magic_number
PUBLIC	_TOPPERS_cfg_sizeof_signed_t
PUBLIC	_TOPPERS_cfg_sizeof_pointer
PUBLIC	_TOPPERS_cfg_CHAR_BIT
PUBLIC	_TOPPERS_cfg_CHAR_MAX
PUBLIC	_TOPPERS_cfg_CHAR_MIN
PUBLIC	_TOPPERS_cfg_SCHAR_MAX
PUBLIC	_TOPPERS_cfg_SHRT_MAX
PUBLIC	_TOPPERS_cfg_INT_MAX
PUBLIC	_TOPPERS_cfg_LONG_MAX
PUBLIC	_TOPPERS_cfg_SIL_ENDIAN_BIG
PUBLIC	_TOPPERS_cfg_SIL_ENDIAN_LITTLE
PUBLIC	_TOPPERS_cfg_TA_NULL
PUBLIC	_TOPPERS_cfg_TA_ACT
PUBLIC	_TOPPERS_cfg_TA_TPRI
PUBLIC	_TOPPERS_cfg_TA_MPRI
PUBLIC	_TOPPERS_cfg_TA_WMUL
PUBLIC	_TOPPERS_cfg_TA_CLR
PUBLIC	_TOPPERS_cfg_TA_STA
PUBLIC	_TOPPERS_cfg_TA_NONKERNEL
PUBLIC	_TOPPERS_cfg_TA_ENAINT
PUBLIC	_TOPPERS_cfg_TA_EDGE
PUBLIC	_TOPPERS_cfg_TMIN_TPRI
PUBLIC	_TOPPERS_cfg_TMAX_TPRI
PUBLIC	_TOPPERS_cfg_TMIN_DPRI
PUBLIC	_TOPPERS_cfg_TMAX_DPRI
PUBLIC	_TOPPERS_cfg_TMIN_MPRI
PUBLIC	_TOPPERS_cfg_TMAX_MPRI
PUBLIC	_TOPPERS_cfg_TMIN_ISRPRI
PUBLIC	_TOPPERS_cfg_TMAX_ISRPRI
PUBLIC	_TOPPERS_cfg_TBIT_TEXPTN
PUBLIC	_TOPPERS_cfg_TBIT_FLGPTN
PUBLIC	_TOPPERS_cfg_TMAX_MAXSEM
PUBLIC	_TOPPERS_cfg_TMAX_RELTIM
PUBLIC	_TOPPERS_cfg_TMIN_INTPRI
PUBLIC	_TOPPERS_cfg_OMIT_INITIALIZE_INTERRUPT
PUBLIC	_TOPPERS_cfg_OMIT_INITIALIZE_EXCEPTION
PUBLIC	_TOPPERS_cfg_USE_TSKINICTXB
PUBLIC	_TOPPERS_cfg_TARGET_TSKATR
PUBLIC	_TOPPERS_cfg_TARGET_INTATR
PUBLIC	_TOPPERS_cfg_TARGET_INHATR
PUBLIC	_TOPPERS_cfg_TARGET_ISRATR
PUBLIC	_TOPPERS_cfg_TARGET_EXCATR
PUBLIC	_TOPPERS_cfg_TARGET_MIN_STKSZ
PUBLIC	_TOPPERS_cfg_TARGET_MIN_ISTKSZ
PUBLIC	_TOPPERS_cfg_CHECK_STKSZ_ALIGN
PUBLIC	_TOPPERS_cfg_CHECK_FUNC_ALIGN
PUBLIC	_TOPPERS_cfg_CHECK_FUNC_NONNULL
PUBLIC	_TOPPERS_cfg_CHECK_STACK_ALIGN
PUBLIC	_TOPPERS_cfg_CHECK_STACK_NONNULL
PUBLIC	_TOPPERS_cfg_CHECK_MPF_ALIGN
PUBLIC	_TOPPERS_cfg_CHECK_MPF_NONNULL
PUBLIC	_TOPPERS_cfg_sizeof_ID
PUBLIC	_TOPPERS_cfg_sizeof_uint_t
PUBLIC	_TOPPERS_cfg_sizeof_SIZE
PUBLIC	_TOPPERS_cfg_sizeof_ATR
PUBLIC	_TOPPERS_cfg_sizeof_PRI
PUBLIC	_TOPPERS_cfg_sizeof_void_ptr
PUBLIC	_TOPPERS_cfg_sizeof_VP
PUBLIC	_TOPPERS_cfg_sizeof_intptr_t
PUBLIC	_TOPPERS_cfg_sizeof_FP
PUBLIC	_TOPPERS_cfg_sizeof_INHNO
PUBLIC	_TOPPERS_cfg_sizeof_INTNO
PUBLIC	_TOPPERS_cfg_sizeof_EXCNO
PUBLIC	_TOPPERS_cfg_sizeof_TINIB
PUBLIC	_TOPPERS_cfg_offsetof_TINIB_tskatr
PUBLIC	_TOPPERS_cfg_offsetof_TINIB_exinf
PUBLIC	_TOPPERS_cfg_offsetof_TINIB_task
PUBLIC	_TOPPERS_cfg_offsetof_TINIB_ipriority
PUBLIC	_TOPPERS_cfg_offsetof_TINIB_stksz
PUBLIC	_TOPPERS_cfg_offsetof_TINIB_stk
PUBLIC	_TOPPERS_cfg_offsetof_TINIB_texatr
PUBLIC	_TOPPERS_cfg_offsetof_TINIB_texrtn
PUBLIC	_TOPPERS_cfg_sizeof_SEMINIB
PUBLIC	_TOPPERS_cfg_offsetof_SEMINIB_sematr
PUBLIC	_TOPPERS_cfg_offsetof_SEMINIB_isemcnt
PUBLIC	_TOPPERS_cfg_offsetof_SEMINIB_maxsem
PUBLIC	_TOPPERS_cfg_sizeof_FLGPTN
PUBLIC	_TOPPERS_cfg_sizeof_FLGINIB
PUBLIC	_TOPPERS_cfg_offsetof_FLGINIB_flgatr
PUBLIC	_TOPPERS_cfg_offsetof_FLGINIB_iflgptn
PUBLIC	_TOPPERS_cfg_sizeof_DTQINIB
PUBLIC	_TOPPERS_cfg_offsetof_DTQINIB_dtqatr
PUBLIC	_TOPPERS_cfg_offsetof_DTQINIB_dtqcnt
PUBLIC	_TOPPERS_cfg_offsetof_DTQINIB_p_dtqmb
PUBLIC	_TOPPERS_cfg_sizeof_PDQINIB
PUBLIC	_TOPPERS_cfg_offsetof_PDQINIB_pdqatr
PUBLIC	_TOPPERS_cfg_offsetof_PDQINIB_pdqcnt
PUBLIC	_TOPPERS_cfg_offsetof_PDQINIB_maxdpri
PUBLIC	_TOPPERS_cfg_offsetof_PDQINIB_p_pdqmb
PUBLIC	_TOPPERS_cfg_sizeof_MBXINIB
PUBLIC	_TOPPERS_cfg_offsetof_MBXINIB_mbxatr
PUBLIC	_TOPPERS_cfg_offsetof_MBXINIB_maxmpri
PUBLIC	_TOPPERS_cfg_sizeof_MPFINIB
PUBLIC	_TOPPERS_cfg_offsetof_MPFINIB_mpfatr
PUBLIC	_TOPPERS_cfg_offsetof_MPFINIB_blkcnt
PUBLIC	_TOPPERS_cfg_offsetof_MPFINIB_blksz
PUBLIC	_TOPPERS_cfg_offsetof_MPFINIB_mpf
PUBLIC	_TOPPERS_cfg_offsetof_MPFINIB_p_mpfmb
PUBLIC	_TOPPERS_cfg_sizeof_CYCINIB
PUBLIC	_TOPPERS_cfg_offsetof_CYCINIB_cycatr
PUBLIC	_TOPPERS_cfg_offsetof_CYCINIB_exinf
PUBLIC	_TOPPERS_cfg_offsetof_CYCINIB_cychdr
PUBLIC	_TOPPERS_cfg_offsetof_CYCINIB_cyctim
PUBLIC	_TOPPERS_cfg_offsetof_CYCINIB_cycphs
PUBLIC	_TOPPERS_cfg_sizeof_ALMINIB
PUBLIC	_TOPPERS_cfg_offsetof_ALMINIB_almatr
PUBLIC	_TOPPERS_cfg_offsetof_ALMINIB_exinf
PUBLIC	_TOPPERS_cfg_offsetof_ALMINIB_almhdr
PUBLIC	_TOPPERS_cfg_sizeof_INHINIB
PUBLIC	_TOPPERS_cfg_offset_INHINIB_inhno
PUBLIC	_TOPPERS_cfg_offset_INHINIB_inhatr
PUBLIC	_TOPPERS_cfg_offset_INHINIB_int_entry
PUBLIC	_TOPPERS_cfg_sizeof_INTINIB
PUBLIC	_TOPPERS_cfg_offset_INTINIB_intno
PUBLIC	_TOPPERS_cfg_offset_INTINIB_intatr
PUBLIC	_TOPPERS_cfg_offset_INTINIB_intpri
PUBLIC	_TOPPERS_cfg_sizeof_EXCINIB
PUBLIC	_TOPPERS_cfg_offset_EXCINIB_excno
PUBLIC	_TOPPERS_cfg_offset_EXCINIB_excatr
PUBLIC	_TOPPERS_cfg_offset_EXCINIB_exc_entry
PUBLIC	_TOPPERS_cfg_static_api_0
PUBLIC	_TOPPERS_cfg_valueof_iniatr_0
PUBLIC	_TOPPERS_cfg_static_api_1
PUBLIC	_TOPPERS_cfg_valueof_teratr_1
PUBLIC	_TOPPERS_cfg_static_api_2
PUBLIC	_TOPPERS_cfg_valueof_intno_2
PUBLIC	_TOPPERS_cfg_valueof_intatr_2
PUBLIC	_TOPPERS_cfg_valueof_intpri_2
PUBLIC	_TOPPERS_cfg_static_api_3
PUBLIC	_TOPPERS_cfg_valueof_inhno_3
PUBLIC	_TOPPERS_cfg_valueof_inhatr_3
PUBLIC	_TOPPERS_cfg_static_api_6
PUBLIC	_TOPPERS_cfg_valueof_iniatr_6
PUBLIC	_TOPPERS_cfg_static_api_7
PUBLIC	_TOPPERS_cfg_valueof_iniatr_7
PUBLIC	_TOPPERS_cfg_static_api_8
PUBLIC	_TOPPERS_cfg_valueof_intno_8
PUBLIC	_TOPPERS_cfg_valueof_intatr_8
PUBLIC	_TOPPERS_cfg_valueof_intpri_8
PUBLIC	_TOPPERS_cfg_static_api_9
PUBLIC	_TOPPERS_cfg_valueof_iniatr_9
PUBLIC	_TOPPERS_cfg_static_api_10
PUBLIC	_TOPPERS_cfg_valueof_teratr_10
PUBLIC	_TOPPERS_cfg_static_api_11
PUBLIC	_TOPPERS_cfg_valueof_isratr_11
PUBLIC	_TOPPERS_cfg_valueof_intno_11
PUBLIC	_TOPPERS_cfg_valueof_isrpri_11
PUBLIC	_TOPPERS_cfg_static_api_12
PUBLIC	_TOPPERS_cfg_valueof_iniatr_12
PUBLIC	_TOPPERS_cfg_static_api_13
PUBLIC	_TOPPERS_cfg_valueof_sematr_13
PUBLIC	_TOPPERS_cfg_valueof_isemcnt_13
PUBLIC	_TOPPERS_cfg_valueof_maxsem_13
PUBLIC	_TOPPERS_cfg_static_api_14
PUBLIC	_TOPPERS_cfg_valueof_sematr_14
PUBLIC	_TOPPERS_cfg_valueof_isemcnt_14
PUBLIC	_TOPPERS_cfg_valueof_maxsem_14
PUBLIC	_TOPPERS_cfg_static_api_21
PUBLIC	_TOPPERS_cfg_valueof_tskatr_21
PUBLIC	_TOPPERS_cfg_valueof_itskpri_21
PUBLIC	_TOPPERS_cfg_valueof_stksz_21
PUBLIC	_TOPPERS_cfg_static_api_22
PUBLIC	_TOPPERS_cfg_valueof_teratr_22
PUBLIC	_TOPPERS_cfg_static_api_23
PUBLIC	_TOPPERS_cfg_valueof_tskatr_23
PUBLIC	_TOPPERS_cfg_valueof_itskpri_23
PUBLIC	_TOPPERS_cfg_valueof_stksz_23
PUBLIC	_TOPPERS_cfg_static_api_24
PUBLIC	_TOPPERS_cfg_valueof_tskatr_24
PUBLIC	_TOPPERS_cfg_valueof_itskpri_24
PUBLIC	_TOPPERS_cfg_valueof_stksz_24
PUBLIC	_TOPPERS_cfg_static_api_25
PUBLIC	_TOPPERS_cfg_valueof_tskatr_25
PUBLIC	_TOPPERS_cfg_valueof_itskpri_25
PUBLIC	_TOPPERS_cfg_valueof_stksz_25
PUBLIC	_TOPPERS_cfg_static_api_26
PUBLIC	_TOPPERS_cfg_valueof_tskatr_26
PUBLIC	_TOPPERS_cfg_valueof_itskpri_26
PUBLIC	_TOPPERS_cfg_valueof_stksz_26
PUBLIC	_TOPPERS_cfg_static_api_27
PUBLIC	_TOPPERS_cfg_valueof_texatr_27
PUBLIC	_TOPPERS_cfg_static_api_28
PUBLIC	_TOPPERS_cfg_valueof_texatr_28
PUBLIC	_TOPPERS_cfg_static_api_29
PUBLIC	_TOPPERS_cfg_valueof_texatr_29
PUBLIC	_TOPPERS_cfg_static_api_30
PUBLIC	_TOPPERS_cfg_valueof_cycatr_30
PUBLIC	_TOPPERS_cfg_valueof_cyctim_30
PUBLIC	_TOPPERS_cfg_valueof_cycphs_30
PUBLIC	_TOPPERS_cfg_static_api_31
PUBLIC	_TOPPERS_cfg_valueof_almatr_31
PUBLIC	_TOPPERS_cfg_static_api_32
PUBLIC	_TOPPERS_cfg_valueof_excno_32
PUBLIC	_TOPPERS_cfg_valueof_excatr_32
_DATA	SEGMENT
COMM	_task_intmask:DWORD
_DATA	ENDS
_DATA	SEGMENT
$SG115764 DB	'TSTAT_WAITING(p_tcb->tstat)', 00H
$SG115540 DB	'p_queue->p_next != p_queue', 00H
	ORG $+1
$SG115765 DB	'e:\netmf-interpreter3\devicecode\targets\os\toppers\asp\'
	DB	'kernel\wait.h', 00H
	ORG $+2
$SG115541 DB	'E:\netmf-interpreter3\DeviceCode\Targets\OS\Toppers\asp\'
	DB	'include\queue.h', 00H
$SG115551 DB	'p_queue->p_prev == p_queue', 00H
	ORG $+5
$SG115552 DB	'E:\netmf-interpreter3\DeviceCode\Targets\OS\Toppers\asp\'
	DB	'include\queue.h', 00H
$SG115608 DB	'time <= TMAX_RELTIM', 00H
	ORG $+4
$SG115609 DB	'e:\netmf-interpreter3\devicecode\targets\os\toppers\asp\'
	DB	'kernel\time_event.h', 00H
_DATA	ENDS
CONST	SEGMENT
_TOPPERS_cfg_magic_number DD 012345678H
_TOPPERS_cfg_sizeof_signed_t DD 08H
_TOPPERS_cfg_sizeof_pointer DD 04H
	ORG $+4
_TOPPERS_cfg_CHAR_BIT DQ 0000000000000008H
_TOPPERS_cfg_CHAR_MAX DQ 000000000000007fH
_TOPPERS_cfg_CHAR_MIN DQ ffffffffffffff80H
_TOPPERS_cfg_SCHAR_MAX DQ 000000000000007fH
_TOPPERS_cfg_SHRT_MAX DQ 0000000000007fffH
_TOPPERS_cfg_INT_MAX DQ 000000007fffffffH
_TOPPERS_cfg_LONG_MAX DQ 000000007fffffffH
_TOPPERS_cfg_SIL_ENDIAN_BIG DQ 0000000000000000H
_TOPPERS_cfg_SIL_ENDIAN_LITTLE DQ 0000000000000001H
_TOPPERS_cfg_TA_NULL DQ 0000000000000000H
_TOPPERS_cfg_TA_ACT DQ 0000000000000002H
_TOPPERS_cfg_TA_TPRI DQ 0000000000000001H
_TOPPERS_cfg_TA_MPRI DQ 0000000000000002H
_TOPPERS_cfg_TA_WMUL DQ 0000000000000002H
_TOPPERS_cfg_TA_CLR DQ 0000000000000004H
_TOPPERS_cfg_TA_STA DQ 0000000000000002H
_TOPPERS_cfg_TA_NONKERNEL DQ 0000000000000002H
_TOPPERS_cfg_TA_ENAINT DQ 0000000000000001H
_TOPPERS_cfg_TA_EDGE DQ 0000000000000002H
_TOPPERS_cfg_TMIN_TPRI DQ 0000000000000001H
_TOPPERS_cfg_TMAX_TPRI DQ 0000000000000010H
_TOPPERS_cfg_TMIN_DPRI DQ 0000000000000001H
_TOPPERS_cfg_TMAX_DPRI DQ 0000000000000010H
_TOPPERS_cfg_TMIN_MPRI DQ 0000000000000001H
_TOPPERS_cfg_TMAX_MPRI DQ 0000000000000010H
_TOPPERS_cfg_TMIN_ISRPRI DQ 0000000000000001H
_TOPPERS_cfg_TMAX_ISRPRI DQ 0000000000000010H
_TOPPERS_cfg_TBIT_TEXPTN DQ 0000000000000020H
_TOPPERS_cfg_TBIT_FLGPTN DQ 0000000000000020H
_TOPPERS_cfg_TMAX_MAXSEM DQ 00000000ffffffffH
_TOPPERS_cfg_TMAX_RELTIM DQ 000000007fffffffH
_TOPPERS_cfg_TMIN_INTPRI DQ fffffffffffffffaH
_TOPPERS_cfg_OMIT_INITIALIZE_INTERRUPT DQ 0000000000000001H
_TOPPERS_cfg_OMIT_INITIALIZE_EXCEPTION DQ 0000000000000000H
_TOPPERS_cfg_USE_TSKINICTXB DQ 0000000000000000H
_TOPPERS_cfg_TARGET_TSKATR DQ 0000000000000000H
_TOPPERS_cfg_TARGET_INTATR DQ 0000000000000000H
_TOPPERS_cfg_TARGET_INHATR DQ 0000000000000002H
_TOPPERS_cfg_TARGET_ISRATR DQ 0000000000000000H
_TOPPERS_cfg_TARGET_EXCATR DQ 0000000000000000H
_TOPPERS_cfg_TARGET_MIN_STKSZ DQ 0000000000000000H
_TOPPERS_cfg_TARGET_MIN_ISTKSZ DQ 0000000000000000H
_TOPPERS_cfg_CHECK_STKSZ_ALIGN DQ 0000000000000010H
_TOPPERS_cfg_CHECK_FUNC_ALIGN DQ 0000000000000004H
_TOPPERS_cfg_CHECK_FUNC_NONNULL DQ 0000000000000001H
_TOPPERS_cfg_CHECK_STACK_ALIGN DQ 0000000000000010H
_TOPPERS_cfg_CHECK_STACK_NONNULL DQ 0000000000000001H
_TOPPERS_cfg_CHECK_MPF_ALIGN DQ 0000000000000004H
_TOPPERS_cfg_CHECK_MPF_NONNULL DQ 0000000000000001H
_TOPPERS_cfg_sizeof_ID DQ 0000000000000004H
_TOPPERS_cfg_sizeof_uint_t DQ 0000000000000004H
_TOPPERS_cfg_sizeof_SIZE DQ 0000000000000008H
_TOPPERS_cfg_sizeof_ATR DQ 0000000000000004H
_TOPPERS_cfg_sizeof_PRI DQ 0000000000000004H
_TOPPERS_cfg_sizeof_void_ptr DQ 0000000000000004H
_TOPPERS_cfg_sizeof_VP DQ 0000000000000004H
_TOPPERS_cfg_sizeof_intptr_t DQ 0000000000000004H
_TOPPERS_cfg_sizeof_FP DQ 0000000000000004H
_TOPPERS_cfg_sizeof_INHNO DQ 0000000000000004H
_TOPPERS_cfg_sizeof_INTNO DQ 0000000000000004H
_TOPPERS_cfg_sizeof_EXCNO DQ 0000000000000004H
_TOPPERS_cfg_sizeof_TINIB DQ 0000000000000020H
_TOPPERS_cfg_offsetof_TINIB_tskatr DQ 0000000000000000H
_TOPPERS_cfg_offsetof_TINIB_exinf DQ 0000000000000004H
_TOPPERS_cfg_offsetof_TINIB_task DQ 0000000000000008H
_TOPPERS_cfg_offsetof_TINIB_ipriority DQ 000000000000000cH
_TOPPERS_cfg_offsetof_TINIB_stksz DQ 0000000000000010H
_TOPPERS_cfg_offsetof_TINIB_stk DQ 0000000000000014H
_TOPPERS_cfg_offsetof_TINIB_texatr DQ 0000000000000018H
_TOPPERS_cfg_offsetof_TINIB_texrtn DQ 000000000000001cH
_TOPPERS_cfg_sizeof_SEMINIB DQ 000000000000000cH
_TOPPERS_cfg_offsetof_SEMINIB_sematr DQ 0000000000000000H
_TOPPERS_cfg_offsetof_SEMINIB_isemcnt DQ 0000000000000004H
_TOPPERS_cfg_offsetof_SEMINIB_maxsem DQ 0000000000000008H
_TOPPERS_cfg_sizeof_FLGPTN DQ 0000000000000004H
_TOPPERS_cfg_sizeof_FLGINIB DQ 0000000000000008H
_TOPPERS_cfg_offsetof_FLGINIB_flgatr DQ 0000000000000000H
_TOPPERS_cfg_offsetof_FLGINIB_iflgptn DQ 0000000000000004H
_TOPPERS_cfg_sizeof_DTQINIB DQ 000000000000000cH
_TOPPERS_cfg_offsetof_DTQINIB_dtqatr DQ 0000000000000000H
_TOPPERS_cfg_offsetof_DTQINIB_dtqcnt DQ 0000000000000004H
_TOPPERS_cfg_offsetof_DTQINIB_p_dtqmb DQ 0000000000000008H
_TOPPERS_cfg_sizeof_PDQINIB DQ 0000000000000010H
_TOPPERS_cfg_offsetof_PDQINIB_pdqatr DQ 0000000000000000H
_TOPPERS_cfg_offsetof_PDQINIB_pdqcnt DQ 0000000000000004H
_TOPPERS_cfg_offsetof_PDQINIB_maxdpri DQ 0000000000000008H
_TOPPERS_cfg_offsetof_PDQINIB_p_pdqmb DQ 000000000000000cH
_TOPPERS_cfg_sizeof_MBXINIB DQ 0000000000000008H
_TOPPERS_cfg_offsetof_MBXINIB_mbxatr DQ 0000000000000000H
_TOPPERS_cfg_offsetof_MBXINIB_maxmpri DQ 0000000000000004H
_TOPPERS_cfg_sizeof_MPFINIB DQ 0000000000000014H
_TOPPERS_cfg_offsetof_MPFINIB_mpfatr DQ 0000000000000000H
_TOPPERS_cfg_offsetof_MPFINIB_blkcnt DQ 0000000000000004H
_TOPPERS_cfg_offsetof_MPFINIB_blksz DQ 0000000000000008H
_TOPPERS_cfg_offsetof_MPFINIB_mpf DQ 000000000000000cH
_TOPPERS_cfg_offsetof_MPFINIB_p_mpfmb DQ 0000000000000010H
_TOPPERS_cfg_sizeof_CYCINIB DQ 0000000000000014H
_TOPPERS_cfg_offsetof_CYCINIB_cycatr DQ 0000000000000000H
_TOPPERS_cfg_offsetof_CYCINIB_exinf DQ 0000000000000004H
_TOPPERS_cfg_offsetof_CYCINIB_cychdr DQ 0000000000000008H
_TOPPERS_cfg_offsetof_CYCINIB_cyctim DQ 000000000000000cH
_TOPPERS_cfg_offsetof_CYCINIB_cycphs DQ 0000000000000010H
_TOPPERS_cfg_sizeof_ALMINIB DQ 000000000000000cH
_TOPPERS_cfg_offsetof_ALMINIB_almatr DQ 0000000000000000H
_TOPPERS_cfg_offsetof_ALMINIB_exinf DQ 0000000000000004H
_TOPPERS_cfg_offsetof_ALMINIB_almhdr DQ 0000000000000008H
_TOPPERS_cfg_sizeof_INHINIB DQ 0000000000000000H
_TOPPERS_cfg_offset_INHINIB_inhno DQ 0000000000000000H
_TOPPERS_cfg_offset_INHINIB_inhatr DQ 0000000000000000H
_TOPPERS_cfg_offset_INHINIB_int_entry DQ 0000000000000000H
_TOPPERS_cfg_sizeof_INTINIB DQ 0000000000000000H
_TOPPERS_cfg_offset_INTINIB_intno DQ 0000000000000000H
_TOPPERS_cfg_offset_INTINIB_intatr DQ 0000000000000000H
_TOPPERS_cfg_offset_INTINIB_intpri DQ 0000000000000000H
_TOPPERS_cfg_sizeof_EXCINIB DQ 000000000000000cH
_TOPPERS_cfg_offset_EXCINIB_excno DQ 0000000000000000H
_TOPPERS_cfg_offset_EXCINIB_excatr DQ 0000000000000004H
_TOPPERS_cfg_offset_EXCINIB_exc_entry DQ 0000000000000008H
_TOPPERS_cfg_static_api_0 DQ 0000000000000000H
_TOPPERS_cfg_valueof_iniatr_0 DQ 0000000000000000H
_TOPPERS_cfg_static_api_1 DQ 0000000000000001H
_TOPPERS_cfg_valueof_teratr_1 DQ 0000000000000000H
_TOPPERS_cfg_static_api_2 DQ 0000000000000002H
_TOPPERS_cfg_valueof_intno_2 DQ 0000000000000001H
_TOPPERS_cfg_valueof_intatr_2 DQ 0000000000000001H
_TOPPERS_cfg_valueof_intpri_2 DQ 0000000000000016H
_TOPPERS_cfg_static_api_3 DQ 0000000000000003H
_TOPPERS_cfg_valueof_inhno_3 DQ 0000000000000001H
_TOPPERS_cfg_valueof_inhatr_3 DQ 0000000000000000H
_TOPPERS_cfg_static_api_6 DQ 0000000000000006H
_TOPPERS_cfg_valueof_iniatr_6 DQ 0000000000000000H
_TOPPERS_cfg_static_api_7 DQ 0000000000000007H
_TOPPERS_cfg_valueof_iniatr_7 DQ 0000000000000000H
_TOPPERS_cfg_static_api_8 DQ 0000000000000008H
_TOPPERS_cfg_valueof_intno_8 DQ 0000000000000001H
_TOPPERS_cfg_valueof_intatr_8 DQ 0000000000000003H
_TOPPERS_cfg_valueof_intpri_8 DQ ffffffffffffffffH
_TOPPERS_cfg_static_api_9 DQ 0000000000000009H
_TOPPERS_cfg_valueof_iniatr_9 DQ 0000000000000000H
_TOPPERS_cfg_static_api_10 DQ 000000000000000aH
_TOPPERS_cfg_valueof_teratr_10 DQ 0000000000000000H
_TOPPERS_cfg_static_api_11 DQ 000000000000000bH
_TOPPERS_cfg_valueof_isratr_11 DQ 0000000000000000H
_TOPPERS_cfg_valueof_intno_11 DQ 0000000000000001H
_TOPPERS_cfg_valueof_isrpri_11 DQ 0000000000000001H
_TOPPERS_cfg_static_api_12 DQ 000000000000000cH
_TOPPERS_cfg_valueof_iniatr_12 DQ 0000000000000000H
_TOPPERS_cfg_static_api_13 DQ 000000000000000dH
_TOPPERS_cfg_valueof_sematr_13 DQ 0000000000000001H
_TOPPERS_cfg_valueof_isemcnt_13 DQ 0000000000000000H
_TOPPERS_cfg_valueof_maxsem_13 DQ 0000000000000001H
_TOPPERS_cfg_static_api_14 DQ 000000000000000eH
_TOPPERS_cfg_valueof_sematr_14 DQ 0000000000000001H
_TOPPERS_cfg_valueof_isemcnt_14 DQ 0000000000000001H
_TOPPERS_cfg_valueof_maxsem_14 DQ 0000000000000001H
_TOPPERS_cfg_static_api_21 DQ 0000000000000015H
_TOPPERS_cfg_valueof_tskatr_21 DQ 0000000000000002H
_TOPPERS_cfg_valueof_itskpri_21 DQ 0000000000000003H
_TOPPERS_cfg_valueof_stksz_21 DQ 0000000000001000H
_TOPPERS_cfg_static_api_22 DQ 0000000000000016H
_TOPPERS_cfg_valueof_teratr_22 DQ 0000000000000000H
_TOPPERS_cfg_static_api_23 DQ 0000000000000017H
_TOPPERS_cfg_valueof_tskatr_23 DQ 0000000000000000H
_TOPPERS_cfg_valueof_itskpri_23 DQ 000000000000000aH
_TOPPERS_cfg_valueof_stksz_23 DQ 0000000000001000H
_TOPPERS_cfg_static_api_24 DQ 0000000000000018H
_TOPPERS_cfg_valueof_tskatr_24 DQ 0000000000000000H
_TOPPERS_cfg_valueof_itskpri_24 DQ 000000000000000aH
_TOPPERS_cfg_valueof_stksz_24 DQ 0000000000001000H
_TOPPERS_cfg_static_api_25 DQ 0000000000000019H
_TOPPERS_cfg_valueof_tskatr_25 DQ 0000000000000000H
_TOPPERS_cfg_valueof_itskpri_25 DQ 000000000000000aH
_TOPPERS_cfg_valueof_stksz_25 DQ 0000000000001000H
_TOPPERS_cfg_static_api_26 DQ 000000000000001aH
_TOPPERS_cfg_valueof_tskatr_26 DQ 0000000000000002H
_TOPPERS_cfg_valueof_itskpri_26 DQ 0000000000000005H
_TOPPERS_cfg_valueof_stksz_26 DQ 0000000000001000H
_TOPPERS_cfg_static_api_27 DQ 000000000000001bH
_TOPPERS_cfg_valueof_texatr_27 DQ 0000000000000000H
_TOPPERS_cfg_static_api_28 DQ 000000000000001cH
_TOPPERS_cfg_valueof_texatr_28 DQ 0000000000000000H
_TOPPERS_cfg_static_api_29 DQ 000000000000001dH
_TOPPERS_cfg_valueof_texatr_29 DQ 0000000000000000H
_TOPPERS_cfg_static_api_30 DQ 000000000000001eH
_TOPPERS_cfg_valueof_cycatr_30 DQ 0000000000000000H
_TOPPERS_cfg_valueof_cyctim_30 DQ 00000000000007d0H
_TOPPERS_cfg_valueof_cycphs_30 DQ 0000000000000000H
_TOPPERS_cfg_static_api_31 DQ 000000000000001fH
_TOPPERS_cfg_valueof_almatr_31 DQ 0000000000000000H
_TOPPERS_cfg_static_api_32 DQ 0000000000000020H
_TOPPERS_cfg_valueof_excno_32 DQ 0000000000000001H
_TOPPERS_cfg_valueof_excatr_32 DQ 0000000000000000H
CONST	ENDS
PUBLIC	_sil_dly_nse
PUBLIC	_main
EXTRN	__RTC_InitBase:PROC
EXTRN	__RTC_Shutdown:PROC
;	COMDAT rtc$TMZ
rtc$TMZ	SEGMENT
__RTC_Shutdown.rtc$TMZ DD FLAT:__RTC_Shutdown
rtc$TMZ	ENDS
;	COMDAT rtc$IMZ
rtc$IMZ	SEGMENT
__RTC_InitBase.rtc$IMZ DD FLAT:__RTC_InitBase
rtc$IMZ	ENDS
; Function compile flags: /Odtp /RTCsu
; File e:\netmf-interpreter3\devicecode\targets\os\toppers\asp\target\msvc\target_cfg1_out.h
_TEXT	SEGMENT
_main	PROC

  00000	55		 push	 ebp
  00001	8b ec		 mov	 ebp, esp

  00003	33 c0		 xor	 eax, eax

  00005	5d		 pop	 ebp
  00006	c3		 ret	 0
_main	ENDP
_TEXT	ENDS
; Function compile flags: /Odtp /RTCsu
; File e:\netmf-interpreter3\devicecode\targets\os\toppers\asp\target\msvc\target_sil.h
;	COMDAT _sil_dly_nse
_TEXT	SEGMENT
_dlytim$ = 8						; size = 4
_sil_dly_nse PROC					; COMDAT

; 101  : {

  00000	55		 push	 ebp
  00001	8b ec		 mov	 ebp, esp

; 102  : 	/*
; 103  : 	 *  シミュレーション環境では意味がないため，何もしない．
; 104  : 	 */
; 105  : }

  00003	5d		 pop	 ebp
  00004	c3		 ret	 0
_sil_dly_nse ENDP
_TEXT	ENDS
END
