; Listing generated by Microsoft (R) Optimizing Compiler Version 18.00.21005.1 

	TITLE	E:\netmf-interpreter3\DeviceCode\Targets\OS\Toppers\asp\config\windows\com_support.cpp
	.686P
	.XMM
	include listing.inc
	.model	flat

INCLUDELIB MSVCRTD
INCLUDELIB OLDNAMES

PUBLIC	__kernel_InitializeComSupportModule
PUBLIC	__kernel_FinalizeComSupportModule
EXTRN	__RTC_InitBase:PROC
EXTRN	__RTC_Shutdown:PROC
;	COMDAT rtc$TMZ
rtc$TMZ	SEGMENT
__RTC_Shutdown.rtc$TMZ DD FLAT:__RTC_Shutdown
rtc$TMZ	ENDS
;	COMDAT rtc$IMZ
rtc$IMZ	SEGMENT
__RTC_InitBase.rtc$IMZ DD FLAT:__RTC_InitBase
rtc$IMZ	ENDS
; Function compile flags: /Odtp /RTCsu
; File e:\netmf-interpreter3\devicecode\targets\os\toppers\asp\config\windows\com_support.cpp
_TEXT	SEGMENT
__kernel_FinalizeComSupportModule PROC

; 1196 : {}

  00000	55		 push	 ebp
  00001	8b ec		 mov	 ebp, esp
  00003	5d		 pop	 ebp
  00004	c3		 ret	 0
__kernel_FinalizeComSupportModule ENDP
_TEXT	ENDS
; Function compile flags: /Odtp /RTCsu
; File e:\netmf-interpreter3\devicecode\targets\os\toppers\asp\config\windows\com_support.cpp
_TEXT	SEGMENT
__kernel_InitializeComSupportModule PROC

; 1192 : {}

  00000	55		 push	 ebp
  00001	8b ec		 mov	 ebp, esp
  00003	5d		 pop	 ebp
  00004	c3		 ret	 0
__kernel_InitializeComSupportModule ENDP
_TEXT	ENDS
END
